(dp0
S'https://en.wikipedia.org/wiki/Main_Page/wiki/Julius_Caesar'
p1
I282
sS'https://en.wikipedia.org/wiki/Main_Page/wiki/Wikipedia'
p2
I53
sS'https://en.wikipedia.org/wiki/Main_Page/wiki/Template:POTD/2017-10-20'
p3
I134
sS'https://en.wikipedia.org/wiki/Main_Page/wiki/Template:POTD/2017-10-21'
p4
I210
sS'https://technet.microsoft.com/windows'
p5
I171
sS'https://en.wikipedia.org/wiki/Main_Page/wiki/The_Supremes_A%27_Go-Go'
p6
I265
sS'http://www.google.com/chromeframe/?redirect=true'
p7
I286
sS'http://www.python.org/events/'
p8
I212
sS'http://www.python.org/dev/core-mentorship/'
p9
I96
sS'http://browsehappy.com/'
p10
I67
sS'http://www.python.org/community/lists/'
p11
I253
sS'https://en.wikipedia.org/wiki/Main_Page/wiki/State_censuses_in_the_United_States'
p12
I192
sS'http://feedproxy.google.com/~r/PythonInsider/~3/8Ow7wxYkBmY/python-363rc1-and-370a1-now-available.html'
p13
I149
sS'https://thenewboston.com/videos.php'
p14
I278
sS'https://en.wikipedia.org/wiki/Main_Page/wiki/Rhipicephalus_pulchellus'
p15
I141
sS'https://en.wikipedia.org/wiki/Main_Page/wiki/Dinosaur'
p16
I80
sS'https://twitter.com/nihalpatel189'
p17
I82
sS'http://pyfound.blogspot.com/'
p18
I216
sS'http://www.python.org/about/success/#engineering'
p19
I133
sS'https://en.wikipedia.org/wiki/Main_Page/wiki/Late_Jurassic'
p20
I26
sS'https://en.wikipedia.org/wiki/Main_Page/wiki/Orientalism'
p21
I14
sS'https://en.wikipedia.org/wiki/Main_Page/wiki/Common_name'
p22
I114
sS'https://en.wikipedia.org/wiki/Main_Page/wiki/Portal:Featured_content'
p23
I140
sS'https://en.wikipedia.org/wiki/Main_Page/wiki/National_Museum_of_Western_Art'
p24
I59
sS'https://en.wikipedia.org/wiki/Main_Page/wiki/Open_world'
p25
I203
sS'https://en.wikipedia.org/wiki/Main_Page/wiki/Portal:Current_events'
p26
I285
sS'https://en.wikipedia.org/wiki/Main_Page/wiki/Wikipedia:Your_first_article'
p27
I154
sS'https://en.wikipedia.org/wiki/Main_Page/wiki/Tick'
p28
I30
sS'http://www.python.org/community/workshops/'
p29
I34
sS'https://en.wikipedia.org/wiki/Main_Page/wiki/File:Le_premier_parachute_de_Jacques_Garnerin,_ca._1799.jpg'
p30
I215
sS'http://www.python.org/events/python-events'
p31
I158
sS'https://en.wikipedia.org/wiki/Main_Page/wiki/Species_(biology)'
p32
I87
sS'https://en.wikipedia.org/wiki/Main_Page/wiki/Portal:Mathematics'
p33
I1
sS'https://en.wikipedia.org/wiki/Main_Page/wiki/Wikipedia:Recent_additions'
p34
I227
sS'http://www.python.org//docs.python.org/3/tutorial/'
p35
I204
sS'https://wikimediafoundation.org/wiki/Our_projects'
p36
I184
sS'https://en.wikiquote.org/wiki/'
p37
I19
sS'https://en.wikipedia.org/wiki/Main_Page/wiki/Neutron_star'
p38
I271
sS'https://en.wikipedia.org/wiki/Main_Page/wiki/Henry_III_of_England'
p39
I33
sS'https://en.wikipedia.org/wiki/Main_Page/wiki/Wikimedia_Foundation'
p40
I92
sS'https://en.wikipedia.org/wiki/Main_Page/wiki/Host_(biology)'
p41
I268
sS'https://en.wikipedia.org/wiki/Main_Page/wiki/Women_of_Algiers'
p42
I29
sS'https://en.wikipedia.org/wiki/Main_Page/wiki/Sauropod'
p43
I182
sS'https://en.wikipedia.org/wiki/Main_Page/wiki/Wikipedia:Reference_desk'
p44
I136
sS'https://thenewboston.com/videos_humanities.php'
p45
I39
sS'http://feedproxy.google.com/~r/PythonInsider/~3/3SUhDRzB1-s/python-2714-released.html'
p46
I25
sS'https://en.wikipedia.org/wiki/Main_Page/wiki/Antabuse'
p47
I84
sS'http://www.python.org/community/merchandise/'
p48
I261
sS'http://www.jayduttshukla.890m.com/'
p49
I293
sS'https://en.wikipedia.org/wiki/Main_Page/wiki/Main_Page'
p50
I122
sS'http://python.org/dev/peps/'
p51
I135
sS'https://en.wikipedia.org/wiki/Main_Page/wiki/Dicraeosaurus'
p52
I102
sS'https://en.wikipedia.org/wiki/Main_Page/wiki/Parisian_Women_in_Algerian_Costume_(The_Harem)'
p53
I81
sS'http://www.python.org/microsoft-edge/'
p54
I252
sS'https://en.wikivoyage.org/wiki/'
p55
I77
sS'https://wiki.python.org/moin/PythonBooks'
p56
I190
sS'https://en.wikipedia.org/wiki/Main_Page/wiki/Wikipedia:News'
p57
I183
sS'https://en.wikipedia.org/wiki/Main_Page/wiki/Wikipedia:Picture_of_the_day/October_2017'
p58
I197
sS'https://en.wikipedia.org/wiki/Main_Page/wiki/Template_talk:Did_you_know'
p59
I277
sS'https://en.wikipedia.org/wiki/Main_Page/wiki/Boogeyman_2'
p60
I95
sS'https://en.wikipedia.org/wiki/Main_Page/wiki/English_language'
p61
I43
sS'http://wiki.python.org/moin/Languages'
p62
I51
sS'https://www.mediawiki.org/wiki/'
p63
I42
sS'https://en.wikipedia.org/wiki/Main_Page/wiki/File:Amargasaurus_NT_small_(mirrored).jpg'
p64
I129
sS'https://en.wikiversity.org/wiki/'
p65
I115
sS'https://en.wikipedia.org/wiki/Main_Page/wiki/Gord_Downie'
p66
I246
sS'http://www.python.org//docs.python.org/3/tutorial/controlflow.html#defining-functions'
p67
I32
sS'https://en.wikipedia.org/wiki/Main_Page/wiki/Portal:Technology'
p68
I16
sS'https://en.wikipedia.org/wiki/Main_Page/wiki/Ampulloclitocybe_clavipes'
p69
I125
sS'https://en.wikipedia.org/wiki/Main_Page/wiki/Austrian_People%27s_Party'
p70
I145
sS'https://thenewboston.com/videos_science.php'
p71
I86
sS'https://wiki.python.org/moin/'
p72
I147
sS'https://www.python.org/psf/codeofconduct/'
p73
I78
sS'https://en.wikipedia.org/wiki/Main_Page/wiki/Portal:Contents'
p74
I13
sS'http://www.python.org/community/awards'
p75
I245
sS'https://en.wikipedia.org/wiki/Main_Page/wiki/Deepak_Chopra'
p76
I126
sS'http://www.python.org/events/calendars/'
p77
I186
sS'http://www.python.org/psf-landing/'
p78
I76
sS'http://www.python.org/about/gettingstarted/'
p79
I166
sS'https://en.wikipedia.org/wiki/Main_Page/wiki/Pierre-Auguste_Renoir'
p80
I128
sS'https://www.microsoft.com/'
p81
I236
sS'https://en.wikipedia.org/wiki/Main_Page/wiki/File:Pierre-Auguste_Renoir_-_Parisiennes_in_Algerian_Costume_or_Harem_-_Google_Art_Project.jpg'
p82
I110
sS'http://plus.google.com/+Python'
p83
I106
sS'https://en.wikipedia.org/wiki/Main_Page/wiki/Schematic'
p84
I213
sS'https://en.wikibooks.org/wiki/'
p85
I239
sS'http://www.python.org/about/success/#arts'
p86
I255
sS'http://docs.python.org/3/tutorial/introduction.html#using-python-as-a-calculator'
p87
I108
sS'http://www.facebook.com/pythonlang?fref=ts'
p88
I199
sS'http://www.python.org/privacy/'
p89
I162
sS'https://www.linkedin.com/in/nihalpatel'
p90
I150
sS'https://en.wikipedia.org/wiki/Main_Page/wiki/Free_content'
p91
I46
sS'http://www.python.org/about/success/#business'
p92
I47
sS'https://en.wikipedia.org/wiki/Main_Page/wiki/1966'
p93
I58
sS'https://en.wikipedia.org/wiki/Main_Page/wiki/Coal_mining'
p94
I198
sS'http://www.python.org/about/success/'
p95
I89
sS'http://www.python.org/events/python-user-group/582/'
p96
I101
sS'https://en.wikipedia.org/wiki/Main_Page/wiki/Deaths_in_2017'
p97
I35
sS'https://www.thenewboston.com/videos.php?cat=278&video=27335'
p98
I254
sS'https://thenewboston.com/videos_beauty.php'
p99
I228
sS'https://azure.microsoft.com/overview/what-is-azure/'
p100
I2
sS'http://www.python.org/community/sigs/'
p101
I206
sS'https://en.wikipedia.org/wiki/Main_Page/wiki/Blantyre_mining_disaster'
p102
I91
sS'https://en.wikipedia.org/wiki/Main_Page/wiki/GW170817'
p103
I178
sS'http://www.python.org/download/alternatives'
p104
I223
sS'http://www.python.org/about/'
p105
I8
sS'https://en.wikipedia.org/wiki/Main_Page/w/index.php?title=Special:UserLogin&amp;returnto=Main+Page'
p106
I148
sS'http://pycon.blogspot.com/'
p107
I11
sS'https://en.wikipedia.org/wiki/Main_Page/wiki/2001'
p108
I111
sS'http://www.python.org/events/python-events/558/'
p109
I45
sS'https://en.wikipedia.org/wiki/Main_Page/wiki/Amargasaurus'
p110
I172
sS'http://www.python.org/downloads/'
p111
I138
sS'https://thenewboston.com/videos_business.php'
p112
I181
sS'https://docs.python.org'
p113
I142
sS'http://www.python.org/about/legal/'
p114
I247
sS'https://en.wikipedia.org/wiki/Main_Page/wiki/Parachute'
p115
I209
sS'https://en.wikipedia.org/wiki/Main_Page/wiki/Template:POTD/2017-10-19'
p116
I69
sS'https://lists.wikimedia.org/mailman/listinfo/daily-article-l'
p117
I131
sS'https://en.wikipedia.org/wiki/Main_Page/wiki/Blantyre,_South_Lanarkshire'
p118
I220
sS'https://en.wikipedia.org/wiki/Main_Page/wiki/John_Potter_(chemist)'
p119
I17
sS'http://www.python.org/dev/peps/'
p120
I250
sS'http://feedproxy.google.com/~r/PythonInsider/~3/pe2Ug4MA0Lg/python-2714-release-candidate-1.html'
p121
I289
sS'https://surveys.jetbrains.com/s3/c7-python-developers-survey-2017'
p122
I28
sS'https://en.wikipedia.org/wiki/Main_Page/wiki/Portal:Arts'
p123
I74
sS'https://en.wikipedia.org/wiki/Main_Page/wiki/Sebastian_Kurz'
p124
I176
sS'http://www.python.org/community/forums/'
p125
I97
sS'https://en.wikipedia.org/wiki/Main_Page/wiki/Electromagnetic_radiation'
p126
I185
sS'http://www.python.org/windows/holographic'
p127
I24
sS'http://twitter.com/ThePSF'
p128
I196
sS'https://en.wikipedia.org/wiki/Main_Page/wiki/New_Zealand_First'
p129
I85
sS'https://en.wikipedia.org/wiki/Main_Page/wiki/Special:Random'
p130
I280
sS'http://www.python.org/psf/'
p131
I7
sS'https://en.wikipedia.org/wiki/Main_Page/wiki/Andr%C3%A9-Jacques_Garnerin'
p132
I99
sS'https://docs.python.org/faq/'
p133
I194
sS'https://en.wikipedia.org/wiki/Main_Page/wiki/George_Saunders'
p134
I187
sS'https://en.wikisource.org/wiki/'
p135
I225
sS'http://ipython.org'
p136
I57
sS'http://planetpython.org/'
p137
I54
sS'https://en.wikipedia.org/wiki/Main_Page/wiki/1877'
p138
I294
sS'https://en.wikipedia.org/wiki/Main_Page/wiki/Wikipedia:Community_portal'
p139
I22
sS'https://en.wikipedia.org/wiki/Main_Page/wiki/Wikipedia:Help_desk'
p140
I113
sS'https://en.wikipedia.org/wiki/Main_Page/wiki/October_22'
p141
I153
sS'https://en.wikipedia.org/wiki/Main_Page/wiki/October_23'
p142
I73
sS'https://en.wikipedia.org/wiki/Main_Page/wiki/Dicraeosauridae'
p143
I296
sS'http://www.python.org/doc/av'
p144
I173
sS'http://www.python.org/about/success/#government'
p145
I88
sS'https://en.wikipedia.org/wiki/Main_Page/wiki/Jacinda_Ardern'
p146
I10
sS'http://www.python.org/jobs/'
p147
I270
sS'https://en.wikipedia.org/wiki/Main_Page/wiki/Roy_Dotrice'
p148
I168
sS'http://www.python.org//docs.python.org/3/tutorial/introduction.html#lists'
p149
I214
sS'http://www.python.org/windows/iot'
p150
I156
sS'https://en.wiktionary.org/wiki/'
p151
I44
sS'https://en.wikipedia.org/wiki/Main_Page/wiki/Margeir_P%C3%A9tursson'
p152
I100
sS'http://www.python.org/blogs/'
p153
I240
sS'https://commons.wikimedia.org/wiki/'
p154
I107
sS'https://en.wikipedia.org/wiki/Main_Page/w/index.php?title=Main_Page&amp;action=edit'
p155
I155
sS'https://en.wikipedia.org/wiki/Main_Page/wiki/Herbivore'
p156
I161
sS'http://www.python.org/events/python-events/586/'
p157
I218
sS'https://en.wikipedia.org/wiki/Main_Page/wiki/File:Jacinda_Ardern_-_cropped.jpg'
p158
I165
sS'https://en.wikipedia.org/wiki/Main_Page/wiki/Texas_Ranger_Division'
p159
I120
sS'https://en.wikipedia.org/wiki/Main_Page/wiki/Financial_crisis_of_2007%E2%80%932008'
p160
I233
sS'http://www.python.org/about/help/'
p161
I48
sS'http://www.python.org/events/python-user-group/'
p162
I93
sS'https://en.wikipedia.org/wiki/Main_Page/wiki/Gravitational_wave'
p163
I274
sS'http://www.python.org/windows/hardware'
p164
I219
sS'https://mail.python.org/mailman/listinfo/python-dev'
p165
I104
sS'https://en.wikipedia.org/wiki/Main_Page/wiki/Suuwassea'
p166
I60
sS'https://en.wikipedia.org/wiki/Main_Page/wiki/Talk:Main_Page'
p167
I119
sS'https://en.wikipedia.org/wiki/Main_Page/wiki/Sahle_Selassie'
p168
I167
sS'https://bugs.python.org/'
p169
I249
sS'https://thenewboston.com/videos_health.php'
p170
I27
sS'http://www.python.org/success-stories/'
p171
I50
sS'https://en.wikipedia.org/wiki/Main_Page/wiki/Sunkam_Achalu'
p172
I211
sS'https://en.wikipedia.org/wiki/Main_Page/wiki/Indian_general_election,_1951%E2%80%9352'
p173
I62
sS'https://en.wikipedia.org/wiki/Main_Page/wiki/Portal:History'
p174
I169
sS'http://www.python.org/downloads/windows/'
p175
I109
sS'https://en.wikipedia.org/wiki/Main_Page/wiki/Wikipedia:Local_Embassy'
p176
I68
sS'http://feedproxy.google.com/~r/PythonInsider/~3/pUndlLcEcKE/python-337rc1-is-now-available-prior-to.html'
p177
I248
sS'https://en.wikipedia.org/wiki/Main_Page/wiki/The_Supremes'
p178
I283
sS'http://blog.python.org'
p179
I201
sS'http://www.python.org/dev/'
p180
I291
sS'https://docs.python.org/3/license.html'
p181
I151
sS'https://en.wikipedia.org/wiki/Main_Page/wiki/Sedimentary_rock'
p182
I260
sS'http://www.python.org/about/quotes/'
p183
I226
sS'https://en.wikinews.org/wiki/'
p184
I264
sS'http://www.python.org//docs.python.org/3/tutorial/controlflow.html'
p185
I15
sS'http://www.python.org/doc/essays/'
p186
I281
sS'https://wiki.python.org/moin/BeginnersGuide'
p187
I98
sS'https://en.wikipedia.org/wiki/Main_Page/wiki/Austrian_legislative_election,_2017'
p188
I117
sS'http://www.python.org/about/success/#education'
p189
I3
sS'https://en.wikipedia.org/wiki/Main_Page/wiki/Battle_of_Raqqa_(2017)'
p190
I195
sS'https://en.wikipedia.org/wiki/Main_Page/wiki/Wikipedia:Featured_pictures'
p191
I275
sS'http://flask.pocoo.org/'
p192
I127
sS'http://www.python.org/about/success/#scientific'
p193
I279
sS'https://en.wikipedia.org/wiki/Main_Page/wiki/1797'
p194
I235
sS'https://en.wikipedia.org/wiki/Main_Page/wiki/David_B._Hill'
p195
I66
sS'https://en.wikipedia.org/wiki/Main_Page/wiki/Keratin'
p196
I205
sS'https://github.com/python/pythondotorg/issues'
p197
I243
sS'https://azure.microsoft.com/services/'
p198
I12
sS'https://en.wikipedia.org/wiki/Main_Page/wiki/List_of_historical_anniversaries'
p199
I175
sS'https://en.wikipedia.org/wiki/Main_Page/wiki/Qian_Weijun'
p200
I90
sS'https://en.wikipedia.org/wiki/Main_Page/wiki/Brachytrachelopan'
p201
I170
sS'https://thenewboston.com/videos_food.php'
p202
I75
sS'http://www.python.org/community/irc/'
p203
I263
sS'http://www.python.org/events/python-events/past/'
p204
I18
sS'http://www.python.org/about/apps/'
p205
I41
sS'https://en.wikipedia.org/wiki/Main_Page'
p206
I180
sS'https://thenewboston.com/index.php'
p207
I241
sS'https://en.wikipedia.org/wiki/Main_Page/wiki/La_Amarga_Formation'
p208
I269
sS'https://status.python.org/'
p209
I222
sS'https://en.wikipedia.org/wiki/Main_Page/wiki/Portal:Society'
p210
I52
sS'http://www.python.org/'
p211
I21
sS'http://www.python.org'
p212
I272
sS'https://species.wikimedia.org/wiki/'
p213
I64
sS'https://en.wikipedia.org/wiki/Main_Page/wiki/Kragujevac_massacre'
p214
I224
sS'https://thenewboston.com/register.php'
p215
I207
sS'https://thenewboston.com/videos_social.php'
p216
I159
sS'https://en.wikipedia.org/wiki/Main_Page/wiki/Wikipedia:Today%27s_featured_article/October_2017'
p217
I105
sS'https://en.wikipedia.org/wiki/Main_Page/wiki/Portal:Contents/Portals'
p218
I40
sS'http://www.python.org/download/other/'
p219
I230
sS'http://www.python.org/community/diversity/'
p220
I61
sS'https://en.wikipedia.org/wiki/Main_Page/wiki/Daphne_Caruana_Galizia'
p221
I79
sS'https://thenewboston.com/login.php'
p222
I288
sS'http://www.python.org/accounts/login/'
p223
I189
sS'https://en.wikipedia.org/wiki/Main_Page/wiki/John_Dunsworth'
p224
I295
sS'https://www.wikidata.org/wiki/'
p225
I267
sS'https://wiki.python.org/moin/Python2orPython3'
p226
I137
sS'https://thenewboston.com/'
p227
I144
sS'https://en.wikipedia.org/wiki/Main_Page/wiki/Wikipedia:Village_pump'
p228
I55
sS'https://en.wikipedia.org/wiki/Main_Page/wiki/Special:MyContributions'
p229
I273
sS'https://en.wikipedia.org/wiki/Main_Page/wiki/File:Rhipicephalus-pulchellus-male.jpg'
p230
I4
sS'http://www.python.org/downloads/source/'
p231
I56
sS'https://wiki.python.org/moin/PythonEventsCalendar#Submitting_an_Event'
p232
I37
sS'https://en.wikipedia.org/wiki/Main_Page/wiki/Gas_balloon'
p233
I146
sS'https://www.facebook.com/nihalpatel198'
p234
I65
sS'http://www.python.org/downloads/mac-osx/'
p235
I5
sS'https://en.wikipedia.org/wiki/Main_Page/wiki/Portal:Science'
p236
I259
sS'https://en.wikipedia.org/wiki/Main_Page/wiki/Portal:Biography'
p237
I71
sS'https://en.wikipedia.org/wiki/Main_Page/wiki/Portal:Geography'
p238
I163
sS'https://en.wikipedia.org/wiki/Main_Page/wiki/Bah%C3%A1%E2%80%99%C3%AD_Faith'
p239
I262
sS'https://en.wikipedia.org/wiki/Main_Page/wiki/Prime_Minister_of_New_Zealand'
p240
I266
sS'https://www.behance.net/nihalpatel'
p241
I251
sS'https://en.wikipedia.org/wiki/Main_Page/wiki/Grand_Theft_Auto_III'
p242
I237
sS'https://en.wikipedia.org/wiki/Main_Page/wiki/Booker_Prize'
p243
I123
sS'https://devguide.python.org/'
p244
I242
sS'https://docs.python.org/'
p245
I276
sS'http://www.python.org/community/'
p246
I257
sS'https://en.wikipedia.org/wiki/Main_Page/wiki/Special:Statistics'
p247
I157
sS'http://www.python.org/windows'
p248
I179
sS'https://thenewboston.com/forum'
p249
I112
sS'https://en.wikipedia.org/wiki/Main_Page/wiki/Lincoln_in_the_Bardo'
p250
I116
sS'https://en.wikipedia.org/wiki/Main_Page/wiki/German_military_administration_in_occupied_France_during_World_War_II'
p251
I139
sS'http://www.python.org/about/success/#software-development'
p252
I200
sS'http://www.python.org/accounts/signup/'
p253
I118
sS'http://www.python.org/events/python-user-group/567/'
p254
I244
sS'https://en.wikipedia.org/wiki/Main_Page/wiki/Syrian_Democratic_Forces'
p255
I36
sS'http://www.python.org/events/python-user-group/past/'
p256
I152
sS'https://en.wikipedia.org/wiki/Main_Page/wiki/Neural_spine_sail'
p257
I132
sS'https://en.wikipedia.org/wiki/Main_Page/wiki/Special:MyTalk'
p258
I256
sS'http://www.python.org/success-stories/industrial-light-magic-runs-python/'
p259
I174
sS'https://en.wikipedia.org/wiki/Main_Page/wiki/October_21'
p260
I130
sS'http://www.python.org/downloads/release/python-363/'
p261
I232
sS'https://en.wikipedia.org/wiki/Main_Page/w/index.php?title=Special:CreateAccount&amp;returnto=Main+Page'
p262
I83
sS'https://en.wikipedia.org/wiki/Main_Page/wiki/Canales_investigation'
p263
I284
sS'https://en.wikipedia.org/wiki/Main_Page/wiki/Argentina'
p264
I290
sS'http://www.python.org/downloads/release/python-2714/'
p265
I221
sS'https://en.wikipedia.org/wiki/Main_Page/wiki/Wikipedia:Selected_anniversaries/October'
p266
I63
sS'https://pypi.python.org/'
p267
I20
sS'https://en.wikipedia.org/wiki/Main_Page/wiki/Bank_run'
p268
I231
sS'https://en.wikipedia.org/wiki/Main_Page/wiki/Knickerbocker_Trust_Company'
p269
I188
sS'https://meta.wikimedia.org/wiki/'
p270
I124
sS'https://en.wikipedia.org/wiki/Main_Page/wiki/Panic_of_1907'
p271
I238
sS'https://en.wikipedia.org/wiki/Main_Page/wiki/New_Zealand_Labour_Party'
p272
I49
sS'https://en.wikipedia.org/wiki/Main_Page/wiki/Wikipedia:Introduction'
p273
I258
sS'https://en.wikipedia.org/wiki/Main_Page/wiki/Wikipedia:Featured_articles'
p274
I31
sS'https://en.wikipedia.org/wiki/Main_Page/wiki/Genus'
p275
I9
sS'https://en.wikipedia.org/wiki/Main_Page/wiki/Billboard_200'
p276
I6
sS'https://en.wikipedia.org/wiki/Main_Page/wiki/Early_Cretaceous_epoch'
p277
I202
sS'http://www.python.org/events/python-user-group/590/'
p278
I70
sS'https://meta.wikimedia.org/wiki/List_of_Wikipedias'
p279
I191
sS'http://www.python.org/about/apps'
p280
I177
sS'https://en.wikipedia.org/wiki/Main_Page/w/index.php?title=Main_Page&amp;action=history'
p281
I23
sS'http://www.python.org//jobs.python.org'
p282
I164
sS'https://en.wikipedia.org/wiki/Main_Page/wiki/International_Stuttering_Awareness_Day'
p283
I234
sS'https://thenewboston.com/videos_math.php'
p284
I193
sS'http://www.python.org/community/logos/'
p285
I143
sS'https://en.wikipedia.org/wiki/Main_Page/wiki/Birth_of_Bah%C3%A1%27u%27ll%C3%A1h'
p286
I287
sS'https://en.wikipedia.org/wiki/Main_Page/wiki/Salon_(Paris)'
p287
I38
sS'https://en.wikipedia.org/wiki/Main_Page/wiki/Eug%C3%A8ne_Delacroix'
p288
I217
sS'https://en.wikipedia.org/wiki/Main_Page/wiki/1907'
p289
I292
sS'https://docs.python.org/3/'
p290
I121
sS'http://www.ie6countdown.com/'
p291
I103
sS'https://en.wikipedia.org/wiki/Main_Page/wiki/Encyclopedia'
p292
I208
sS'http://feedproxy.google.com/~r/PythonInsider/~3/MTxxkf2pSRE/python-363-is-now-available.html'
p293
I72
sS'https://en.wikipedia.org/wiki/Main_Page/wiki/Burebista'
p294
I94
sS'http://www.python.org/doc/'
p295
I229
sS'http://brochure.getpython.info/'
p296
I160
s.