(dp0
S'https://en.wikipedia.org/wiki/Main_Page/wiki/Julius_Caesar'
p1
I211
sS'https://en.wikipedia.org/wiki/Main_Page/wiki/Wikipedia'
p2
I37
sS'https://en.wikipedia.org/wiki/Main_Page/wiki/Template:POTD/2017-10-20'
p3
I19
sS'https://en.wikipedia.org/wiki/Main_Page/wiki/Template:POTD/2017-10-21'
p4
I120
sS'https://en.wikipedia.org/wiki/Main_Page/wiki/Electromagnetic_radiation'
p5
I140
sS'http://www.google.com/chromeframe/?redirect=true'
p6
I275
sS'http://www.python.org/events/'
p7
I143
sS'http://www.python.org/dev/core-mentorship/'
p8
I92
sS'http://browsehappy.com/'
p9
I47
sS'http://www.python.org/community/lists/'
p10
I247
sS'https://en.wikipedia.org/wiki/Main_Page/wiki/State_censuses_in_the_United_States'
p11
I292
sS'http://feedproxy.google.com/~r/PythonInsider/~3/8Ow7wxYkBmY/python-363rc1-and-370a1-now-available.html'
p12
I122
sS'https://en.wikipedia.org/wiki/Main_Page/wiki/Birth_of_Bah%C3%A1%27u%27ll%C3%A1h'
p13
I132
sS'https://thenewboston.com/videos_beauty.php'
p14
I83
sS'https://en.wikipedia.org/wiki/Main_Page/wiki/Dinosaur'
p15
I21
sS'https://en.wikipedia.org/wiki/Main_Page/wiki/Roy_Dotrice'
p16
I266
sS'https://www.python.org/psf/codeofconduct/'
p17
I224
sS'http://pyfound.blogspot.com/'
p18
I240
sS'https://en.wikipedia.org/wiki/Main_Page/wiki/Sedimentary_rock'
p19
I33
sS'https://en.wikipedia.org/wiki/Main_Page/wiki/Late_Jurassic'
p20
I1
sS'https://en.wikipedia.org/wiki/Main_Page/wiki/Deaths_in_2017'
p21
I68
sS'https://en.wikipedia.org/wiki/Main_Page/wiki/GW170817'
p22
I217
sS'http://www.python.org/events/python-events'
p23
I7
sS'https://en.wikipedia.org/wiki/Main_Page/wiki/Portal:Featured_content'
p24
I206
sS'https://en.wikipedia.org/wiki/Main_Page/wiki/National_Museum_of_Western_Art'
p25
I199
sS'https://en.wikipedia.org/wiki/Main_Page/wiki/Open_world'
p26
I127
sS'https://en.wikipedia.org/wiki/Main_Page/wiki/Portal:Current_events'
p27
I112
sS'http://www.python.org/windows'
p28
I231
sS'https://en.wikipedia.org/wiki/Main_Page/wiki/Wikipedia:Your_first_article'
p29
I69
sS'https://en.wikipedia.org/wiki/Main_Page/wiki/Tick'
p30
I100
sS'https://en.wikipedia.org/wiki/Main_Page/wiki/Texas_Ranger_Division'
p31
I270
sS'http://www.python.org/about/success/#engineering'
p32
I279
sS'http://www.python.org/community/workshops/'
p33
I59
sS'https://en.wikipedia.org/wiki/Main_Page/wiki/File:Le_premier_parachute_de_Jacques_Garnerin,_ca._1799.jpg'
p34
I3
sS'http://www.python.org/blogs/'
p35
I253
sS'http://www.python.org/accounts/signup/'
p36
I210
sS'https://en.wikipedia.org/wiki/Main_Page/wiki/Encyclopedia'
p37
I25
sS'https://en.wikinews.org/wiki/'
p38
I67
sS'https://wikimediafoundation.org/wiki/Our_projects'
p39
I291
sS'https://en.wikiquote.org/wiki/'
p40
I167
sS'https://en.wikipedia.org/wiki/Main_Page/wiki/Neutron_star'
p41
I195
sS'https://en.wikipedia.org/wiki/Main_Page/wiki/Henry_III_of_England'
p42
I76
sS'https://en.wikipedia.org/wiki/Main_Page/wiki/Wikimedia_Foundation'
p43
I123
sS'https://en.wikipedia.org/wiki/Main_Page/wiki/Host_(biology)'
p44
I276
sS'https://en.wikipedia.org/wiki/Main_Page/wiki/Women_of_Algiers'
p45
I181
sS'http://www.python.org/about/success/'
p46
I172
sS'https://en.wikipedia.org/wiki/Main_Page/wiki/Sauropod'
p47
I27
sS'https://en.wikipedia.org/wiki/Main_Page/wiki/Argentina'
p48
I94
sS'https://thenewboston.com/videos_humanities.php'
p49
I44
sS'https://en.wikipedia.org/wiki/Main_Page/wiki/Early_Cretaceous_epoch'
p50
I60
sS'https://en.wikipedia.org/wiki/Main_Page/wiki/Antabuse'
p51
I20
sS'http://www.python.org/community/merchandise/'
p52
I264
sS'http://www.jayduttshukla.890m.com/'
p53
I173
sS'https://en.wikipedia.org/wiki/Main_Page/wiki/Main_Page'
p54
I137
sS'https://en.wikipedia.org/wiki/Main_Page/wiki/Neural_spine_sail'
p55
I161
sS'https://technet.microsoft.com/windows'
p56
I51
sS'https://en.wikipedia.org/wiki/Main_Page/wiki/Parisian_Women_in_Algerian_Costume_(The_Harem)'
p57
I178
sS'http://www.python.org/microsoft-edge/'
p58
I166
sS'https://en.wikivoyage.org/wiki/'
p59
I34
sS'https://en.wikipedia.org/wiki/Main_Page/wiki/Wikipedia:News'
p60
I89
sS'https://en.wikipedia.org/wiki/Main_Page/wiki/Wikipedia:Picture_of_the_day/October_2017'
p61
I105
sS'https://en.wikipedia.org/wiki/Main_Page/wiki/Boogeyman_2'
p62
I242
sS'https://en.wikipedia.org/wiki/Main_Page/wiki/English_language'
p63
I5
sS'http://wiki.python.org/moin/Languages'
p64
I261
sS'https://mail.python.org/mailman/listinfo/python-dev'
p65
I147
sS'https://en.wikipedia.org/wiki/Main_Page/wiki/File:Amargasaurus_NT_small_(mirrored).jpg'
p66
I46
sS'https://en.wikiversity.org/wiki/'
p67
I251
sS'https://en.wikipedia.org/wiki/Main_Page/wiki/Gord_Downie'
p68
I269
sS'http://www.python.org//docs.python.org/3/tutorial/controlflow.html#defining-functions'
p69
I70
sS'https://en.wikipedia.org/wiki/Main_Page/wiki/Portal:Technology'
p70
I102
sS'https://en.wikipedia.org/wiki/Main_Page/wiki/Ampulloclitocybe_clavipes'
p71
I156
sS'https://en.wikipedia.org/wiki/Main_Page/wiki/Austrian_People%27s_Party'
p72
I191
sS'https://thenewboston.com/videos_science.php'
p73
I139
sS'https://wiki.python.org/moin/'
p74
I75
sS'http://www.python.org/about/help/'
p75
I225
sS'https://en.wikipedia.org/wiki/Main_Page/wiki/Portal:Contents'
p76
I117
sS'http://www.python.org/downloads/'
p77
I145
sS'https://en.wikipedia.org/wiki/Main_Page/wiki/Deepak_Chopra'
p78
I215
sS'https://en.wikipedia.org/wiki/Main_Page/wiki/Financial_crisis_of_2007%E2%80%932008'
p79
I155
sS'http://www.python.org/psf-landing/'
p80
I97
sS'http://www.python.org/about/gettingstarted/'
p81
I193
sS'http://www.python.org/'
p82
I262
sS'https://www.microsoft.com/'
p83
I190
sS'https://en.wikipedia.org/wiki/Main_Page/wiki/File:Pierre-Auguste_Renoir_-_Parisiennes_in_Algerian_Costume_or_Harem_-_Google_Art_Project.jpg'
p84
I229
sS'https://en.wikipedia.org/wiki/Main_Page/wiki/Common_name'
p85
I226
sS'https://en.wikibooks.org/wiki/'
p86
I243
sS'http://www.python.org/about/success/#arts'
p87
I171
sS'http://docs.python.org/3/tutorial/introduction.html#using-python-as-a-calculator'
p88
I130
sS'https://www.linkedin.com/in/nihalpatel'
p89
I72
sS'https://en.wikipedia.org/wiki/Main_Page/wiki/Free_content'
p90
I255
sS'https://en.wikipedia.org/wiki/Main_Page/wiki/Special:MyTalk'
p91
I23
sS'http://www.python.org/about/success/#software-development'
p92
I81
sS'https://en.wikipedia.org/wiki/Main_Page/wiki/Coal_mining'
p93
I296
sS'http://www.python.org/dev/'
p94
I136
sS'https://meta.wikimedia.org/wiki/'
p95
I114
sS'https://en.wikipedia.org/wiki/Main_Page/wiki/Orientalism'
p96
I177
sS'https://www.thenewboston.com/videos.php?cat=278&video=27335'
p97
I237
sS'https://en.wikipedia.org/wiki/Main_Page/wiki/Lincoln_in_the_Bardo'
p98
I197
sS'https://azure.microsoft.com/overview/what-is-azure/'
p99
I29
sS'http://www.python.org/community/sigs/'
p100
I295
sS'https://bugs.python.org/'
p101
I165
sS'https://en.wikipedia.org/wiki/Main_Page/wiki/Suuwassea'
p102
I198
sS'https://en.wikipedia.org/wiki/Main_Page/wiki/Wikipedia:Recent_additions'
p103
I48
sS'http://www.python.org/about/'
p104
I158
sS'https://en.wikipedia.org/wiki/Main_Page/wiki/Talk:Main_Page'
p105
I188
sS'https://en.wikipedia.org/wiki/Main_Page/w/index.php?title=Special:UserLogin&amp;returnto=Main+Page'
p106
I244
sS'http://pycon.blogspot.com/'
p107
I56
sS'https://en.wikipedia.org/wiki/Main_Page/wiki/2001'
p108
I18
sS'http://www.python.org/events/python-events/558/'
p109
I101
sS'https://thenewboston.com/videos_social.php'
p110
I179
sS'http://www.python.org/community/awards'
p111
I54
sS'http://www.python.org/about/quotes/'
p112
I41
sS'http://www.facebook.com/pythonlang?fref=ts'
p113
I133
sS'http://www.python.org/about/legal/'
p114
I40
sS'https://en.wikipedia.org/wiki/Main_Page/wiki/Parachute'
p115
I73
sS'https://en.wikipedia.org/wiki/Main_Page/wiki/Template:POTD/2017-10-19'
p116
I207
sS'https://lists.wikimedia.org/mailman/listinfo/daily-article-l'
p117
I182
sS'https://docs.python.org'
p118
I149
sS'http://www.python.org/dev/peps/'
p119
I85
sS'http://feedproxy.google.com/~r/PythonInsider/~3/pe2Ug4MA0Lg/python-2714-release-candidate-1.html'
p120
I222
sS'https://surveys.jetbrains.com/s3/c7-python-developers-survey-2017'
p121
I202
sS'https://en.wikipedia.org/wiki/Main_Page/wiki/Portal:Arts'
p122
I115
sS'https://en.wikipedia.org/wiki/Main_Page/wiki/Portal:Contents/Portals'
p123
I287
sS'https://en.wikipedia.org/wiki/Main_Page/wiki/1877'
p124
I128
sS'http://www.python.org/windows/holographic'
p125
I153
sS'http://twitter.com/ThePSF'
p126
I49
sS'https://en.wikipedia.org/wiki/Main_Page/wiki/New_Zealand_First'
p127
I192
sS'https://en.wikipedia.org/wiki/Main_Page/wiki/Special:Random'
p128
I84
sS'https://en.wikipedia.org/wiki/Main_Page/wiki/The_Supremes_A%27_Go-Go'
p129
I11
sS'https://en.wikipedia.org/wiki/Main_Page/wiki/Andr%C3%A9-Jacques_Garnerin'
p130
I107
sS'https://docs.python.org/faq/'
p131
I141
sS'https://en.wikipedia.org/wiki/Main_Page/wiki/George_Saunders'
p132
I258
sS'https://en.wikipedia.org/wiki/Main_Page/wiki/Rhipicephalus_pulchellus'
p133
I228
sS'https://en.wikisource.org/wiki/'
p134
I163
sS'http://ipython.org'
p135
I186
sS'https://en.wikipedia.org/wiki/Main_Page/wiki/Indian_general_election,_1951%E2%80%9352'
p136
I204
sS'https://twitter.com/nihalpatel189'
p137
I232
sS'http://www.python.org/community/forums/'
p138
I282
sS'https://en.wikipedia.org/wiki/Main_Page/wiki/Wikipedia:Community_portal'
p139
I214
sS'https://en.wikipedia.org/wiki/Main_Page/wiki/Wikipedia:Help_desk'
p140
I13
sS'https://en.wikipedia.org/wiki/Main_Page/wiki/October_22'
p141
I52
sS'https://en.wikipedia.org/wiki/Main_Page/wiki/Bank_run'
p142
I271
sS'https://en.wikipedia.org/wiki/Main_Page/wiki/Dicraeosauridae'
p143
I280
sS'http://www.python.org/download/alternatives'
p144
I277
sS'https://en.wikipedia.org/wiki/Main_Page/wiki/Species_(biology)'
p145
I284
sS'http://www.python.org/doc/av'
p146
I248
sS'https://en.wikipedia.org/wiki/Main_Page/wiki/Grand_Theft_Auto_III'
p147
I38
sS'https://en.wikipedia.org/wiki/Main_Page/wiki/Jacinda_Ardern'
p148
I220
sS'http://www.python.org/jobs/'
p149
I71
sS'http://www.python.org/doc/'
p150
I260
sS'http://www.python.org//docs.python.org/3/tutorial/introduction.html#lists'
p151
I87
sS'https://en.wikipedia.org/wiki/Main_Page/wiki/Template_talk:Did_you_know'
p152
I98
sS'https://en.wiktionary.org/wiki/'
p153
I16
sS'https://en.wikipedia.org/wiki/Main_Page/wiki/Margeir_P%C3%A9tursson'
p154
I91
sS'https://commons.wikimedia.org/wiki/'
p155
I111
sS'https://en.wikipedia.org/wiki/Main_Page/w/index.php?title=Main_Page&amp;action=edit'
p156
I74
sS'https://en.wikipedia.org/wiki/Main_Page/wiki/Herbivore'
p157
I238
sS'http://www.python.org/accounts/login/'
p158
I216
sS'https://en.wikipedia.org/wiki/Main_Page/wiki/1907'
p159
I205
sS'https://en.wikipedia.org/wiki/Main_Page/wiki/Wikipedia:Local_Embassy'
p160
I184
sS'https://en.wikipedia.org/wiki/Main_Page/wiki/Schematic'
p161
I135
sS'http://www.python.org/windows/iot'
p162
I249
sS'https://thenewboston.com/videos.php'
p163
I118
sS'https://www.wikidata.org/wiki/'
p164
I96
sS'http://www.python.org/windows/hardware'
p165
I14
sS'https://en.wikipedia.org/wiki/Main_Page/wiki/Portal:Mathematics'
p166
I95
sS'https://en.wikipedia.org/wiki/Main_Page/wiki/Dicraeosaurus'
p167
I252
sS'https://en.wikipedia.org/wiki/Main_Page/wiki/Blantyre,_South_Lanarkshire'
p168
I113
sS'http://www.python.org/events/python-user-group/'
p169
I176
sS'https://en.wikipedia.org/wiki/Main_Page/wiki/Sahle_Selassie'
p170
I142
sS'https://thenewboston.com/videos_health.php'
p171
I138
sS'http://www.python.org/success-stories/'
p172
I285
sS'https://en.wikipedia.org/wiki/Main_Page/wiki/Sunkam_Achalu'
p173
I227
sS'http://planetpython.org/'
p174
I28
sS'https://en.wikipedia.org/wiki/Main_Page/wiki/Portal:History'
p175
I283
sS'http://www.python.org/downloads/windows/'
p176
I289
sS'https://en.wikipedia.org/wiki/Main_Page/wiki/Wikipedia:Featured_pictures'
p177
I109
sS'http://feedproxy.google.com/~r/PythonInsider/~3/pUndlLcEcKE/python-337rc1-is-now-available-prior-to.html'
p178
I4
sS'https://en.wikipedia.org/wiki/Main_Page/wiki/The_Supremes'
p179
I234
sS'http://blog.python.org'
p180
I32
sS'https://docs.python.org/3/license.html'
p181
I2
sS'https://www.mediawiki.org/wiki/'
p182
I278
sS'http://www.python.org/about/success/#government'
p183
I201
sS'http://www.python.org//docs.python.org/3/tutorial/'
p184
I159
sS'http://www.python.org//docs.python.org/3/tutorial/controlflow.html'
p185
I9
sS'http://www.python.org/doc/essays/'
p186
I185
sS'https://wiki.python.org/moin/BeginnersGuide'
p187
I246
sS'https://en.wikipedia.org/wiki/Main_Page/wiki/Austrian_legislative_election,_2017'
p188
I62
sS'http://www.python.org/about/success/#education'
p189
I189
sS'https://en.wikipedia.org/wiki/Main_Page/wiki/Battle_of_Raqqa_(2017)'
p190
I57
sS'http://flask.pocoo.org/'
p191
I150
sS'http://www.python.org/about/success/#scientific'
p192
I180
sS'https://en.wikipedia.org/wiki/Main_Page/wiki/1797'
p193
I233
sS'https://en.wikipedia.org/wiki/Main_Page/wiki/David_B._Hill'
p194
I39
sS'https://en.wikipedia.org/wiki/Main_Page/wiki/Keratin'
p195
I116
sS'https://github.com/python/pythondotorg/issues'
p196
I230
sS'https://azure.microsoft.com/services/'
p197
I80
sS'https://en.wikipedia.org/wiki/Main_Page/wiki/List_of_historical_anniversaries'
p198
I288
sS'https://en.wikipedia.org/wiki/Main_Page/wiki/Qian_Weijun'
p199
I79
sS'https://en.wikipedia.org/wiki/Main_Page/wiki/Brachytrachelopan'
p200
I286
sS'https://thenewboston.com/videos_food.php'
p201
I66
sS'http://www.python.org/community/irc/'
p202
I12
sS'http://www.python.org/events/python-events/past/'
p203
I10
sS'http://www.python.org/about/apps/'
p204
I154
sS'https://en.wikipedia.org/wiki/Main_Page'
p205
I152
sS'https://thenewboston.com/index.php'
p206
I169
sS'https://en.wikipedia.org/wiki/Main_Page/wiki/La_Amarga_Formation'
p207
I146
sS'https://status.python.org/'
p208
I104
sS'https://en.wikipedia.org/wiki/Main_Page/wiki/Portal:Society'
p209
I187
sS'https://en.wikipedia.org/wiki/Main_Page/wiki/Pierre-Auguste_Renoir'
p210
I42
sS'http://www.python.org'
p211
I144
sS'https://species.wikimedia.org/wiki/'
p212
I241
sS'https://thenewboston.com/videos_business.php'
p213
I209
sS'https://en.wikipedia.org/wiki/Main_Page/wiki/Blantyre_mining_disaster'
p214
I170
sS'https://en.wikipedia.org/wiki/Main_Page/wiki/Kragujevac_massacre'
p215
I134
sS'https://thenewboston.com/register.php'
p216
I256
sS'https://en.wikipedia.org/wiki/Main_Page/wiki/Amargasaurus'
p217
I53
sS'https://en.wikipedia.org/wiki/Main_Page/wiki/John_Potter_(chemist)'
p218
I160
sS'https://en.wikipedia.org/wiki/Main_Page/wiki/Wikipedia:Today%27s_featured_article/October_2017'
p219
I99
sS'https://en.wikipedia.org/wiki/Main_Page/wiki/Sebastian_Kurz'
p220
I151
sS'http://www.python.org/download/other/'
p221
I110
sS'http://www.python.org/community/diversity/'
p222
I86
sS'https://en.wikipedia.org/wiki/Main_Page/wiki/Daphne_Caruana_Galizia'
p223
I268
sS'https://thenewboston.com/login.php'
p224
I223
sS'http://www.python.org/events/python-events/586/'
p225
I55
sS'https://en.wikipedia.org/wiki/Main_Page/wiki/John_Dunsworth'
p226
I24
sS'https://en.wikipedia.org/wiki/Main_Page/wiki/Gravitational_wave'
p227
I15
sS'https://wiki.python.org/moin/Python2orPython3'
p228
I61
sS'https://thenewboston.com/'
p229
I131
sS'https://en.wikipedia.org/wiki/Main_Page/wiki/Panic_of_1907'
p230
I257
sS'https://en.wikipedia.org/wiki/Main_Page/wiki/Special:MyContributions'
p231
I263
sS'https://en.wikipedia.org/wiki/Main_Page/wiki/File:Rhipicephalus-pulchellus-male.jpg'
p232
I213
sS'http://www.python.org/downloads/source/'
p233
I63
sS'https://wiki.python.org/moin/PythonEventsCalendar#Submitting_an_Event'
p234
I250
sS'https://en.wikipedia.org/wiki/Main_Page/wiki/Gas_balloon'
p235
I65
sS'https://www.facebook.com/nihalpatel198'
p236
I175
sS'http://www.python.org/downloads/mac-osx/'
p237
I148
sS'https://en.wikipedia.org/wiki/Main_Page/wiki/Portal:Science'
p238
I265
sS'https://en.wikipedia.org/wiki/Main_Page/wiki/Portal:Biography'
p239
I50
sS'https://en.wikipedia.org/wiki/Main_Page/wiki/Portal:Geography'
p240
I129
sS'https://en.wikipedia.org/wiki/Main_Page/wiki/Bah%C3%A1%E2%80%99%C3%AD_Faith'
p241
I103
sS'https://en.wikipedia.org/wiki/Main_Page/wiki/Prime_Minister_of_New_Zealand'
p242
I239
sS'https://www.behance.net/nihalpatel'
p243
I168
sS'https://en.wikipedia.org/wiki/Main_Page/wiki/Booker_Prize'
p244
I218
sS'https://devguide.python.org/'
p245
I235
sS'https://en.wikipedia.org/wiki/Main_Page/wiki/File:Jacinda_Ardern_-_cropped.jpg'
p246
I274
sS'https://docs.python.org/'
p247
I259
sS'http://www.python.org/community/'
p248
I119
sS'https://en.wikipedia.org/wiki/Main_Page/wiki/Special:Statistics'
p249
I162
sS'http://www.python.org/about/success/#business'
p250
I58
sS'https://thenewboston.com/forum'
p251
I31
sS'http://www.python.org/downloads/release/python-363/'
p252
I26
sS'https://en.wikipedia.org/wiki/Main_Page/wiki/German_military_administration_in_occupied_France_during_World_War_II'
p253
I43
sS'https://en.wikipedia.org/wiki/Main_Page/wiki/1966'
p254
I208
sS'https://wiki.python.org/moin/PythonBooks'
p255
I22
sS'https://docs.python.org/3/'
p256
I200
sS'https://en.wikipedia.org/wiki/Main_Page/wiki/Syrian_Democratic_Forces'
p257
I45
sS'http://www.python.org/events/python-user-group/past/'
p258
I6
sS'http://www.python.org/privacy/'
p259
I124
sS'http://www.python.org/events/calendars/'
p260
I273
sS'http://plus.google.com/+Python'
p261
I267
sS'http://www.python.org/success-stories/industrial-light-magic-runs-python/'
p262
I121
sS'https://en.wikipedia.org/wiki/Main_Page/wiki/October_21'
p263
I106
sS'https://en.wikipedia.org/wiki/Main_Page/w/index.php?title=Special:CreateAccount&amp;returnto=Main+Page'
p264
I126
sS'https://en.wikipedia.org/wiki/Main_Page/wiki/Canales_investigation'
p265
I78
sS'https://en.wikipedia.org/wiki/Main_Page/wiki/Wikipedia:Reference_desk'
p266
I108
sS'http://www.python.org/downloads/release/python-2714/'
p267
I82
sS'https://en.wikipedia.org/wiki/Main_Page/wiki/Wikipedia:Selected_anniversaries/October'
p268
I36
sS'https://pypi.python.org/'
p269
I203
sS'https://en.wikipedia.org/wiki/Main_Page/wiki/October_23'
p270
I290
sS'https://en.wikipedia.org/wiki/Main_Page/wiki/Knickerbocker_Trust_Company'
p271
I272
sS'http://www.python.org/events/python-user-group/582/'
p272
I183
sS'https://en.wikipedia.org/wiki/Main_Page/wiki/New_Zealand_Labour_Party'
p273
I281
sS'https://en.wikipedia.org/wiki/Main_Page/wiki/Wikipedia:Introduction'
p274
I219
sS'https://en.wikipedia.org/wiki/Main_Page/wiki/Wikipedia:Featured_articles'
p275
I17
sS'https://en.wikipedia.org/wiki/Main_Page/wiki/Genus'
p276
I212
sS'http://www.python.org/psf/'
p277
I8
sS'https://en.wikipedia.org/wiki/Main_Page/wiki/Billboard_200'
p278
I93
sS'http://feedproxy.google.com/~r/PythonInsider/~3/3SUhDRzB1-s/python-2714-released.html'
p279
I254
sS'http://www.python.org/events/python-user-group/590/'
p280
I164
sS'https://en.wikipedia.org/wiki/Main_Page/wiki/Wikipedia:Village_pump'
p281
I293
sS'https://meta.wikimedia.org/wiki/List_of_Wikipedias'
p282
I236
sS'http://www.python.org/about/apps'
p283
I77
sS'https://en.wikipedia.org/wiki/Main_Page/w/index.php?title=Main_Page&amp;action=history'
p284
I90
sS'https://en.wikipedia.org/wiki/Main_Page/wiki/Eug%C3%A8ne_Delacroix'
p285
I174
sS'https://en.wikipedia.org/wiki/Main_Page/wiki/International_Stuttering_Awareness_Day'
p286
I157
sS'https://thenewboston.com/videos_math.php'
p287
I194
sS'http://www.python.org/community/logos/'
p288
I196
sS'http://www.python.org//jobs.python.org'
p289
I294
sS'https://en.wikipedia.org/wiki/Main_Page/wiki/Salon_(Paris)'
p290
I125
sS'http://www.python.org/events/python-user-group/567/'
p291
I64
sS'http://www.ie6countdown.com/'
p292
I30
sS'http://feedproxy.google.com/~r/PythonInsider/~3/MTxxkf2pSRE/python-363-is-now-available.html'
p293
I88
sS'https://en.wikipedia.org/wiki/Main_Page/wiki/Burebista'
p294
I35
sS'http://brochure.getpython.info/'
p295
I245
sS'http://python.org/dev/peps/'
p296
I221
s.