(dp0
S'https://en.wikipedia.org/wiki/Main_Page/wiki/Julius_Caesar'
p1
I333
sS'https://en.wikipedia.org/wiki/Main_Page/wiki/State_censuses_in_the_United_States'
p2
I211
sS'http://www.google.com/chromeframe/?redirect=true'
p3
I23
sS'http://www.python.org/dev/core-mentorship/'
p4
I156
sS'http://www.python.org/doc/essays/'
p5
I306
sS'https://thenewboston.com/videos_beauty.php'
p6
I179
sS'https://en.wikipedia.org/wiki/Google_Pay'
p7
I219
sS'https://www.python.org/psf/codeofconduct/'
p8
I34
sS'http://www.python.org/about/success/#engineering'
p9
I192
sS'https://en.wikipedia.org/wiki/Main_Page/wiki/Late_Jurassic'
p10
I216
sS'http://www.python.org/community/workshops/'
p11
I125
sS'https://en.wikipedia.org/wiki/Main_Page/wiki/File:Le_premier_parachute_de_Jacques_Garnerin,_ca._1799.jpg'
p12
I85
sS'http://www.python.org/blogs/'
p13
I203
sS'http://www.python.org/about/success/#scientific'
p14
I308
sS'https://en.wikipedia.org/wiki/Main_Page/wiki/Henry_III_of_England'
p15
I199
sS'https://thenewboston.com/videos_humanities.php'
p16
I146
sS'http://www.jayduttshukla.890m.com/'
p17
I11
sS'http://python.org/dev/peps/'
p18
I234
sS'https://en.wikipedia.org/wiki/Main_Page/wiki/Dicraeosaurus'
p19
I142
sS'https://en.wikipedia.org/wiki/Main_Page/wiki/Rhipicephalus_pulchellus'
p20
I293
sS'https://en.wikipedia.org/wiki/Main_Page/wiki/Boogeyman_2'
p21
I279
sS'https://www.mediawiki.org/wiki/'
p22
I22
sS'https://en.wikipedia.org/wiki/Main_Page/wiki/Portal:Technology'
p23
I339
sS'https://en.wikipedia.org/wiki/Google_Pay/wiki/Softcard'
p24
I1
sS'https://en.wikipedia.org/wiki/Main_Page/wiki/Deepak_Chopra'
p25
I288
sS'https://en.wikipedia.org/wiki/Main_Page/wiki/File:Pierre-Auguste_Renoir_-_Parisiennes_in_Algerian_Costume_or_Harem_-_Google_Art_Project.jpg'
p26
I298
sS'https://en.wikipedia.org/wiki/Main_Page/wiki/Special:MyTalk'
p27
I77
sS'http://www.python.org/about/success/#software-development'
p28
I154
sS'http://www.python.org/dev/'
p29
I240
sS'https://en.wikipedia.org/wiki/Main_Page/wiki/Schematic'
p30
I209
sS'http://www.python.org/community/sigs/'
p31
I166
sS'https://en.wikipedia.org/wiki/Main_Page/wiki/Wikipedia:Recent_additions'
p32
I177
sS'https://en.wikipedia.org/wiki/Main_Page/wiki/2001'
p33
I236
sS'https://en.wikipedia.org/wiki/Main_Page/wiki/Amargasaurus'
p34
I336
sS'http://www.python.org/community/awards'
p35
I222
sS'http://www.python.org/about/legal/'
p36
I36
sS'https://en.wikipedia.org/wiki/Main_Page/wiki/Portal:Contents/Portals'
p37
I176
sS'https://en.wikipedia.org/wiki/Main_Page/wiki/1877'
p38
I355
sS'http://twitter.com/ThePSF'
p39
I163
sS'https://en.wikipedia.org/wiki/Google_Pay/wiki/Republic_of_Ireland'
p40
I332
sS'https://en.wikipedia.org/wiki/Main_Page/wiki/Special:Random'
p41
I309
sS'https://en.wikipedia.org/wiki/Main_Page/wiki/List_of_historical_anniversaries'
p42
I121
sS'https://en.wikipedia.org/wiki/Google_Pay/wiki/Ticket_(admission)'
p43
I133
sS'https://en.wikipedia.org/wiki/Main_Page/wiki/George_Saunders'
p44
I64
sS'https://en.wikipedia.org/wiki/Google_Pay/wiki/Brazil'
p45
I341
sS'https://en.wikipedia.org/wiki/Main_Page/wiki/Wikipedia:Community_portal'
p46
I319
sS'https://en.wikipedia.org/wiki/Main_Page/wiki/Brachytrachelopan'
p47
I266
sS'https://en.wikipedia.org/wiki/Google_Pay/wiki/United_States'
p48
I65
sS'https://en.wikipedia.org/wiki/Google_Pay/wiki/Software_categories#Categorization_approaches'
p49
I304
sS'https://en.wikipedia.org/wiki/Main_Page/wiki/Template_talk:Did_you_know'
p50
I198
sS'https://en.wikipedia.org/wiki/Main_Page/wiki/1907'
p51
I56
sS'http://www.python.org/events/python-user-group/'
p52
I101
sS'http://www.python.org/windows/hardware'
p53
I267
sS'http://www.python.org//docs.python.org/3/tutorial/'
p54
I330
sS'https://en.wikipedia.org/wiki/Main_Page/wiki/Austrian_legislative_election,_2017'
p55
I182
sS'https://en.wikipedia.org/wiki/Google_Pay/wiki/Two-factor_authentication'
p56
I134
sS'https://en.wikipedia.org/wiki/Google_Pay/wiki/Czech_Republic'
p57
I46
sS'http://www.python.org/psf/'
p58
I264
sS'https://en.wikipedia.org/wiki/Google_Pay/wiki/Taiwan'
p59
I204
sS'http://www.python.org/about/apps/'
p60
I57
sS'https://status.python.org/'
p61
I353
sS'https://en.wikipedia.org/wiki/Main_Page/wiki/Kragujevac_massacre'
p62
I10
sS'https://thenewboston.com/videos_social.php'
p63
I184
sS'https://en.wikipedia.org/wiki/Main_Page/wiki/Wikipedia:Today%27s_featured_article/October_2017'
p64
I299
sS'https://en.wikipedia.org/wiki/Main_Page/wiki/Sebastian_Kurz'
p65
I206
sS'https://en.wikipedia.org/wiki/Google_Pay/wiki/Google_Pay_Send'
p66
I30
sS'https://en.wikipedia.org/wiki/Google_Pay/wiki/India'
p67
I92
sS'http://www.python.org/community/diversity/'
p68
I265
sS'https://thenewboston.com/login.php'
p69
I143
sS'https://thenewboston.com/'
p70
I337
sS'https://en.wikipedia.org/wiki/Main_Page/wiki/File:Rhipicephalus-pulchellus-male.jpg'
p71
I300
sS'https://en.wikipedia.org/wiki/Google_Pay/wiki/Smartwatch'
p72
I364
sS'https://wiki.python.org/moin/PythonEventsCalendar#Submitting_an_Event'
p73
I263
sS'https://www.facebook.com/nihalpatel198'
p74
I237
sS'https://en.wikipedia.org/wiki/Main_Page/wiki/Portal:Science'
p75
I346
sS'https://en.wikipedia.org/wiki/Main_Page/wiki/Portal:Geography'
p76
I254
sS'https://en.wikipedia.org/wiki/Main_Page/wiki/Bah%C3%A1%E2%80%99%C3%AD_Faith'
p77
I41
sS'http://www.python.org/community/'
p78
I241
sS'http://pyfound.blogspot.com/'
p79
I153
sS'https://en.wikipedia.org/wiki/Google_Pay/wiki/Allied_Irish_Banks'
p80
I314
sS'https://en.wikipedia.org/wiki/Main_Page/wiki/Lincoln_in_the_Bardo'
p81
I62
sS'https://en.wikipedia.org/wiki/Google_Pay/wiki/Software_license'
p82
I208
sS'https://en.wikipedia.org/wiki/Google_Pay/wiki/Spain'
p83
I329
sS'https://en.wikipedia.org/wiki/Main_Page/wiki/Genus'
p84
I155
sS'https://en.wikipedia.org/wiki/Google_Pay/wiki/Proprietary_software'
p85
I95
sS'https://meta.wikimedia.org/wiki/List_of_Wikipedias'
p86
I118
sS'https://en.wikipedia.org/wiki/Main_Page/w/index.php?title=Main_Page&amp;action=history'
p87
I71
sS'http://www.python.org/doc/'
p88
I17
sS'https://en.wikipedia.org/wiki/Main_Page/wiki/Salon_(Paris)'
p89
I109
sS'http://www.ie6countdown.com/'
p90
I145
sS'http://feedproxy.google.com/~r/PythonInsider/~3/MTxxkf2pSRE/python-363-is-now-available.html'
p91
I132
sS'https://en.wikipedia.org/wiki/Google_Pay/wiki/Point-of-sale_terminal'
p92
I80
sS'http://www.python.org/downloads/release/python-363/'
p93
I137
sS'https://en.wikipedia.org/wiki/Google_Pay/wiki/Google_Play'
p94
I189
sS'http://browsehappy.com/'
p95
I33
sS'http://www.python.org/community/lists/'
p96
I75
sS'https://en.wikipedia.org/wiki/Main_Page/wiki/File:Amargasaurus_NT_small_(mirrored).jpg'
p97
I139
sS'https://en.wikipedia.org/wiki/Google_Pay/wiki/Autofill'
p98
I13
sS'https://en.wikipedia.org/wiki/Main_Page/wiki/Deaths_in_2017'
p99
I127
sS'https://en.wikipedia.org/wiki/Main_Page/wiki/National_Museum_of_Western_Art'
p100
I210
sS'https://en.wikipedia.org/wiki/Main_Page/wiki/Portal:Current_events'
p101
I114
sS'https://en.wikipedia.org/wiki/Google_Pay/wiki/Germany'
p102
I335
sS'https://en.wikipedia.org/wiki/Main_Page/wiki/Portal:Mathematics'
p103
I305
sS'https://en.wikipedia.org/wiki/Google_Pay/wiki/E-commerce_payment_system'
p104
I103
sS'https://en.wikipedia.org/wiki/Main_Page/wiki/Women_of_Algiers'
p105
I269
sS'https://en.wikipedia.org/wiki/Main_Page/wiki/Sauropod'
p106
I227
sS'http://feedproxy.google.com/~r/PythonInsider/~3/3SUhDRzB1-s/python-2714-released.html'
p107
I226
sS'https://en.wikipedia.org/wiki/Main_Page/wiki/Main_Page'
p108
I102
sS'https://technet.microsoft.com/windows'
p109
I122
sS'https://en.wikipedia.org/wiki/Main_Page/wiki/Parisian_Women_in_Algerian_Costume_(The_Harem)'
p110
I97
sS'https://en.wikipedia.org/wiki/Main_Page/wiki/Wikipedia:News'
p111
I357
sS'https://en.wikipedia.org/wiki/Main_Page/wiki/Gord_Downie'
p112
I302
sS'https://en.wikipedia.org/wiki/Google_Pay/wiki/United_Kingdom'
p113
I285
sS'https://en.wikipedia.org/wiki/Main_Page/wiki/Financial_crisis_of_2007%E2%80%932008'
p114
I172
sS'https://www.microsoft.com/'
p115
I248
sS'http://plus.google.com/+Python'
p116
I20
sS'http://www.python.org/privacy/'
p117
I68
sS'https://en.wikipedia.org/wiki/Google_Pay/wiki/File:Google_Pay_Availability.svg'
p118
I310
sS'http://www.python.org/about/success/#business'
p119
I327
sS'https://en.wikipedia.org/wiki/Main_Page/wiki/Wikipedia:Selected_anniversaries/October'
p120
I70
sS'https://en.wikipedia.org/wiki/Main_Page/wiki/Dicraeosauridae'
p121
I19
sS'https://en.wikipedia.org/wiki/Main_Page/wiki/Suuwassea'
p122
I83
sS'https://wikimediafoundation.org/wiki/Our_projects'
p123
I90
sS'https://en.wikipedia.org/wiki/Main_Page/w/index.php?title=Special:UserLogin&amp;returnto=Main+Page'
p124
I342
sS'http://pycon.blogspot.com/'
p125
I86
sS'https://en.wikipedia.org/wiki/Main_Page/wiki/Parachute'
p126
I277
sS'https://www.thenewboston.com/videos.php?cat=278&video=27335'
p127
I195
sS'https://en.wikipedia.org/wiki/Google_Pay/wiki/Online_payment'
p128
I55
sS'https://en.wikipedia.org/wiki/Main_Page/wiki/The_Supremes_A%27_Go-Go'
p129
I276
sS'https://en.wikipedia.org/wiki/Main_Page/wiki/Andr%C3%A9-Jacques_Garnerin'
p130
I29
sS'https://en.wikipedia.org/wiki/Google_Pay/wiki/Google_Chrome'
p131
I24
sS'http://planetpython.org/'
p132
I186
sS'https://en.wikipedia.org/wiki/Main_Page/wiki/October_21'
p133
I131
sS'https://en.wikipedia.org/wiki/Main_Page/wiki/October_22'
p134
I244
sS'https://en.wikipedia.org/wiki/Main_Page/wiki/October_23'
p135
I16
sS'http://www.python.org/doc/av'
p136
I283
sS'https://en.wikipedia.org/wiki/Main_Page/wiki/Jacinda_Ardern'
p137
I14
sS'http://www.python.org/jobs/'
p138
I78
sS'https://thenewboston.com/register.php'
p139
I7
sS'https://commons.wikimedia.org/wiki/'
p140
I74
sS'https://en.wikipedia.org/wiki/Main_Page/wiki/Herbivore'
p141
I51
sS'http://www.python.org/windows/iot'
p142
I291
sS'https://en.wikipedia.org/wiki/Google_Pay/wiki/Unified_Payments_Interface'
p143
I256
sS'http://www.python.org/about/help/'
p144
I275
sS'https://thenewboston.com/videos.php'
p145
I148
sS'https://en.wikipedia.org/wiki/Google_Pay/wiki/Magnetic_stripe_card'
p146
I348
sS'https://thenewboston.com/videos_health.php'
p147
I120
sS'https://en.wikipedia.org/wiki/Google_Pay/wiki/File:Google_Pay_(GPay)_Logo.svg'
p148
I212
sS'https://en.wikipedia.org/wiki/Main_Page/wiki/Texas_Ranger_Division'
p149
I246
sS'https://en.wikipedia.org/wiki/Main_Page/wiki/The_Supremes'
p150
I12
sS'https://en.wikipedia.org/wiki/Main_Page/wiki/Open_world'
p151
I197
sS'http://www.python.org//docs.python.org/3/tutorial/controlflow.html'
p152
I193
sS'https://wiki.python.org/moin/BeginnersGuide'
p153
I35
sS'http://www.python.org/about/success/#education'
p154
I53
sS'https://en.wikipedia.org/wiki/Google_Pay/wiki/Google_I/O'
p155
I72
sS'http://www.python.org/community/irc/'
p156
I295
sS'https://en.wikipedia.org/wiki/Google_Pay/wiki/Lithuania'
p157
I37
sS'http://www.python.org/events/python-events'
p158
I268
sS'https://en.wikipedia.org/wiki/Main_Page'
p159
I88
sS'https://en.wikipedia.org/wiki/Google_Pay/wiki/Belgium'
p160
I130
sS'https://thenewboston.com/index.php'
p161
I54
sS'http://www.python.org/events/calendars/'
p162
I98
sS'https://en.wikipedia.org/wiki/Main_Page/wiki/Pierre-Auguste_Renoir'
p163
I205
sS'https://species.wikimedia.org/wiki/'
p164
I201
sS'https://wiki.python.org/moin/Python2orPython3'
p165
I239
sS'http://www.python.org/downloads/source/'
p166
I168
sS'https://en.wikipedia.org/wiki/Main_Page/wiki/Portal:Biography'
p167
I91
sS'https://en.wikipedia.org/wiki/Main_Page/wiki/Booker_Prize'
p168
I349
sS'https://docs.python.org/'
p169
I58
sS'https://en.wikipedia.org/wiki/Main_Page/wiki/Special:Statistics'
p170
I123
sS'https://en.wikipedia.org/wiki/Main_Page/wiki/Eug%C3%A8ne_Delacroix'
p171
I18
sS'http://www.python.org/accounts/signup/'
p172
I94
sS'http://www.python.org/events/python-user-group/past/'
p173
I347
sS'https://en.wikipedia.org/wiki/Main_Page/wiki/Neural_spine_sail'
p174
I191
sS'https://en.wikipedia.org/wiki/Main_Page/w/index.php?title=Special:CreateAccount&amp;returnto=Main+Page'
p175
I356
sS'http://www.python.org/downloads/release/python-2714/'
p176
I151
sS'https://azure.microsoft.com/overview/what-is-azure/'
p177
I117
sS'https://en.wikipedia.org/wiki/Main_Page/wiki/New_Zealand_Labour_Party'
p178
I104
sS'https://en.wikipedia.org/wiki/Main_Page/wiki/Wikipedia:Featured_articles'
p179
I147
sS'https://en.wikipedia.org/wiki/Main_Page/wiki/Billboard_200'
p180
I27
sS'https://en.wikipedia.org/wiki/Main_Page/wiki/International_Stuttering_Awareness_Day'
p181
I338
sS'https://thenewboston.com/videos_math.php'
p182
I261
sS'http://www.python.org//jobs.python.org'
p183
I221
sS'https://docs.python.org/3/'
p184
I340
sS'https://en.wikipedia.org/wiki/Main_Page/wiki/Wikipedia'
p185
I194
sS'https://en.wikipedia.org/wiki/Main_Page/wiki/Template:POTD/2017-10-20'
p186
I66
sS'https://en.wikipedia.org/wiki/Main_Page/wiki/Template:POTD/2017-10-21'
p187
I25
sS'https://en.wikipedia.org/wiki/Main_Page/wiki/Dinosaur'
p188
I28
sS'https://en.wikipedia.org/wiki/Main_Page/wiki/Sedimentary_rock'
p189
I238
sS'https://en.wikipedia.org/wiki/Main_Page/wiki/Common_name'
p190
I334
sS'https://mail.python.org/mailman/listinfo/python-dev'
p191
I44
sS'https://en.wikinews.org/wiki/'
p192
I257
sS'https://en.wikipedia.org/wiki/Google_Pay/wiki/Italy'
p193
I162
sS'https://en.wikipedia.org/wiki/Main_Page/wiki/Wikimedia_Foundation'
p194
I178
sS'https://en.wikipedia.org/wiki/Main_Page/wiki/Wikipedia:Reference_desk'
p195
I96
sS'http://www.python.org/about/apps'
p196
I352
sS'https://en.wikipedia.org/wiki/Google_Pay/wiki/Denmark'
p197
I9
sS'https://en.wikivoyage.org/wiki/'
p198
I292
sS'https://en.wikipedia.org/wiki/Main_Page/wiki/Wikipedia:Picture_of_the_day/October_2017'
p199
I311
sS'http://www.python.org//docs.python.org/3/tutorial/controlflow.html#defining-functions'
p200
I270
sS'https://en.wikipedia.org/wiki/Main_Page/wiki/Ampulloclitocybe_clavipes'
p201
I255
sS'https://en.wikipedia.org/wiki/Google_Pay/wiki/Software_developer'
p202
I345
sS'http://www.python.org/psf-landing/'
p203
I247
sS'https://en.wikipedia.org/wiki/Google_Pay/wiki/Poland'
p204
I105
sS'http://www.python.org'
p205
I149
sS'https://www.linkedin.com/in/nihalpatel'
p206
I312
sS'https://en.wikipedia.org/wiki/Main_Page/wiki/Free_content'
p207
I6
sS'https://en.wikipedia.org/wiki/Main_Page/wiki/Coal_mining'
p208
I190
sS'http://www.python.org/about/success/'
p209
I317
sS'http://www.python.org/events/python-user-group/582/'
p210
I87
sS'https://en.wikipedia.org/wiki/Main_Page/wiki/Blantyre_mining_disaster'
p211
I232
sS'https://en.wikipedia.org/wiki/Google_Pay/wiki/Silicon_Valley'
p212
I157
sS'http://www.python.org/about/'
p213
I313
sS'https://en.wikipedia.org/wiki/Main_Page/wiki/Austrian_People%27s_Party'
p214
I272
sS'http://www.python.org/events/python-events/558/'
p215
I38
sS'http://www.python.org/downloads/'
p216
I259
sS'http://www.python.org/about/quotes/'
p217
I187
sS'http://www.facebook.com/pythonlang?fref=ts'
p218
I343
sS'https://lists.wikimedia.org/mailman/listinfo/daily-article-l'
p219
I39
sS'https://en.wikipedia.org/wiki/Main_Page/wiki/John_Potter_(chemist)'
p220
I245
sS'http://www.python.org/dev/peps/'
p221
I278
sS'https://en.wikipedia.org/wiki/Main_Page/wiki/Portal:Arts'
p222
I40
sS'http://www.python.org/about/success/#government'
p223
I323
sS'https://en.wikisource.org/wiki/'
p224
I165
sS'http://ipython.org'
p225
I2
sS'https://en.wikipedia.org/wiki/Google_Pay/wiki/New_Zealand'
p226
I31
sS'https://en.wikipedia.org/wiki/Main_Page/wiki/Bank_run'
p227
I180
sS'https://en.wikipedia.org/wiki/Main_Page/wiki/Burebista'
p228
I260
sS'http://www.python.org//docs.python.org/3/tutorial/introduction.html#lists'
p229
I49
sS'https://en.wiktionary.org/wiki/'
p230
I99
sS'https://en.wikipedia.org/wiki/Google_Pay/wiki/Near_field_communication'
p231
I124
sS'http://www.python.org/about/success/#arts'
p232
I228
sS'https://en.wikipedia.org/wiki/Main_Page/wiki/Gravitational_wave'
p233
I359
sS'https://en.wikipedia.org/wiki/Main_Page/wiki/Encyclopedia'
p234
I242
sS'https://thenewboston.com/videos_business.php'
p235
I225
sS'https://en.wikipedia.org/wiki/Main_Page/wiki/Sunkam_Achalu'
p236
I361
sS'https://en.wikipedia.org/wiki/Main_Page/wiki/Portal:History'
p237
I185
sS'http://www.python.org/downloads/windows/'
p238
I43
sS'https://en.wikipedia.org/wiki/Google_Pay/wiki/Digital_wallet'
p239
I233
sS'https://docs.python.org/3/license.html'
p240
I82
sS'http://www.python.org/download/alternatives'
p241
I188
sS'https://en.wikipedia.org/wiki/Main_Page/wiki/Battle_of_Raqqa_(2017)'
p242
I116
sS'http://flask.pocoo.org/'
p243
I159
sS'https://en.wikipedia.org/wiki/Google_Pay/wiki/KBC_Bank_Ireland'
p244
I128
sS'https://en.wikipedia.org/wiki/Main_Page/wiki/Keratin'
p245
I52
sS'https://en.wikipedia.org/wiki/Google_Pay/wiki/Google'
p246
I136
sS'http://www.python.org/events/python-events/past/'
p247
I110
sS'https://en.wikipedia.org/wiki/Main_Page/wiki/Neutron_star'
p248
I47
sS'https://en.wikipedia.org/wiki/Main_Page/wiki/La_Amarga_Formation'
p249
I252
sS'http://www.python.org/'
p250
I315
sS'https://en.wikipedia.org/wiki/Google_Pay/wiki/Mobile_app'
p251
I213
sS'https://en.wikipedia.org/wiki/Google_Pay/wiki/Braintree_(company)'
p252
I79
sS'https://en.wikipedia.org/wiki/Google_Pay/wiki/Google_Wallet'
p253
I243
sS'http://www.python.org/download/other/'
p254
I287
sS'https://en.wikipedia.org/wiki/Main_Page/wiki/Wikipedia:Help_desk'
p255
I183
sS'https://en.wikipedia.org/wiki/Main_Page/wiki/Daphne_Caruana_Galizia'
p256
I135
sS'http://www.python.org/accounts/login/'
p257
I167
sS'https://en.wikipedia.org/wiki/Google_Pay/wiki/Point_of_sale'
p258
I362
sS'https://en.wikipedia.org/wiki/Main_Page/wiki/Gas_balloon'
p259
I60
sS'https://en.wikipedia.org/wiki/Google_Pay/wiki/File:Pay_with_Google_screenshot.jpeg'
p260
I351
sS'https://en.wikipedia.org/wiki/Main_Page/wiki/Host_(biology)'
p261
I181
sS'https://thenewboston.com/forum'
p262
I26
sS'https://en.wikipedia.org/wiki/Main_Page/wiki/German_military_administration_in_occupied_France_during_World_War_II'
p263
I235
sS'https://en.wikipedia.org/wiki/Main_Page/wiki/Syrian_Democratic_Forces'
p264
I63
sS'https://en.wikipedia.org/wiki/Main_Page/wiki/Canales_investigation'
p265
I84
sS'https://en.wikipedia.org/wiki/Google_Pay/wiki/Canada'
p266
I301
sS'https://en.wikipedia.org/wiki/Google_Pay/wiki/Host_card_emulation'
p267
I100
sS'https://en.wikipedia.org/wiki/Main_Page/wiki/Early_Cretaceous_epoch'
p268
I303
sS'http://www.python.org/events/python-user-group/590/'
p269
I294
sS'https://en.wikipedia.org/wiki/Google_Pay/wiki/Wikipedia:Protection_policy#semi'
p270
I175
sS'http://www.python.org/success-stories/'
p271
I273
sS'http://www.python.org/events/'
p272
I42
sS'https://en.wikipedia.org/wiki/Main_Page/wiki/1797'
p273
I258
sS'http://feedproxy.google.com/~r/PythonInsider/~3/8Ow7wxYkBmY/python-363rc1-and-370a1-now-available.html'
p274
I350
sS'https://en.wikipedia.org/wiki/Main_Page/wiki/Roy_Dotrice'
p275
I367
sS'https://twitter.com/nihalpatel189'
p276
I200
sS'https://en.wikipedia.org/wiki/Main_Page/wiki/Orientalism'
p277
I138
sS'https://en.wikipedia.org/wiki/Main_Page/wiki/GW170817'
p278
I344
sS'https://en.wikipedia.org/wiki/Main_Page/wiki/Portal:Featured_content'
p279
I207
sS'https://github.com/python/pythondotorg/issues'
p280
I115
sS'https://en.wikipedia.org/wiki/Main_Page/wiki/Wikipedia:Your_first_article'
p281
I174
sS'https://en.wikipedia.org/wiki/Main_Page/wiki/Tick'
p282
I76
sS'https://en.wikipedia.org/wiki/Main_Page/wiki/Species_(biology)'
p283
I262
sS'https://en.wikipedia.org/wiki/Google_Pay/wiki/Russia'
p284
I73
sS'https://en.wikipedia.org/wiki/Google_Pay/wiki/Google_Assistant'
p285
I282
sS'https://en.wikiquote.org/wiki/'
p286
I170
sS'https://en.wikipedia.org/wiki/Google_Pay/wiki/Slovakia'
p287
I217
sS'https://en.wikipedia.org/wiki/Google_Pay/wiki/File:Android_Pay_logo.svg'
p288
I8
sS'https://en.wikipedia.org/wiki/Main_Page/wiki/Argentina'
p289
I3
sS'https://en.wikipedia.org/wiki/Main_Page/wiki/Antabuse'
p290
I271
sS'https://en.wikipedia.org/wiki/Google_Pay/wiki/Application_programming_interface'
p291
I320
sS'http://www.python.org/microsoft-edge/'
p292
I164
sS'https://en.wikipedia.org/wiki/Google_Pay/wiki/Australia'
p293
I45
sS'https://en.wikipedia.org/wiki/Main_Page/wiki/English_language'
p294
I15
sS'http://wiki.python.org/moin/Languages'
p295
I160
sS'https://en.wikiversity.org/wiki/'
p296
I326
sS'https://thenewboston.com/videos_science.php'
p297
I48
sS'https://wiki.python.org/moin/'
p298
I215
sS'https://en.wikipedia.org/wiki/Main_Page/wiki/Portal:Contents'
p299
I365
sS'https://en.wikipedia.org/wiki/Google_Pay/wiki/Credit_card'
p300
I202
sS'https://en.wikibooks.org/wiki/'
p301
I106
sS'http://docs.python.org/3/tutorial/introduction.html#using-python-as-a-calculator'
p302
I223
sS'https://en.wikipedia.org/wiki/Main_Page/wiki/1966'
p303
I214
sS'https://meta.wikimedia.org/wiki/'
p304
I69
sS'https://en.wikipedia.org/wiki/Google_Pay/wiki/Operating_system'
p305
I59
sS'https://en.wikipedia.org/wiki/Google_Pay/wiki/Debit_card'
p306
I358
sS'http://www.python.org/community/merchandise/'
p307
I363
sS'https://en.wikipedia.org/wiki/Google_Pay/wiki/Croatia'
p308
I218
sS'https://en.wikipedia.org/wiki/Main_Page/wiki/Template:POTD/2017-10-19'
p309
I318
sS'https://docs.python.org'
p310
I307
sS'http://feedproxy.google.com/~r/PythonInsider/~3/pe2Ug4MA0Lg/python-2714-release-candidate-1.html'
p311
I290
sS'https://surveys.jetbrains.com/s3/c7-python-developers-survey-2017'
p312
I21
sS'http://www.python.org/community/forums/'
p313
I61
sS'http://www.python.org/windows/holographic'
p314
I141
sS'https://en.wikipedia.org/wiki/Main_Page/wiki/New_Zealand_First'
p315
I150
sS'https://en.wikipedia.org/wiki/Google_Pay/wiki/Tez_(software)'
p316
I229
sS'https://bugs.python.org/'
p317
I325
sS'https://docs.python.org/faq/'
p318
I324
sS'https://en.wikipedia.org/wiki/Google_Pay/wiki/Boarding_pass'
p319
I93
sS'https://en.wikipedia.org/wiki/Main_Page/wiki/Grand_Theft_Auto_III'
p320
I286
sS'https://en.wikipedia.org/wiki/Main_Page/wiki/Margeir_P%C3%A9tursson'
p321
I289
sS'https://en.wikipedia.org/wiki/Main_Page/w/index.php?title=Main_Page&amp;action=edit'
p322
I144
sS'https://en.wikipedia.org/wiki/Main_Page/wiki/File:Jacinda_Ardern_-_cropped.jpg'
p323
I152
sS'https://en.wikipedia.org/wiki/Main_Page/wiki/Wikipedia:Featured_pictures'
p324
I129
sS'https://en.wikipedia.org/wiki/Main_Page/wiki/Blantyre,_South_Lanarkshire'
p325
I316
sS'https://en.wikipedia.org/wiki/Main_Page/wiki/Talk:Main_Page'
p326
I67
sS'https://en.wikipedia.org/wiki/Main_Page/wiki/Sahle_Selassie'
p327
I161
sS'https://en.wikipedia.org/wiki/Main_Page/wiki/Indian_general_election,_1951%E2%80%9352'
p328
I296
sS'https://en.wikipedia.org/wiki/Main_Page/wiki/Wikipedia:Local_Embassy'
p329
I284
sS'http://feedproxy.google.com/~r/PythonInsider/~3/pUndlLcEcKE/python-337rc1-is-now-available-prior-to.html'
p330
I274
sS'http://blog.python.org'
p331
I107
sS'https://en.wikipedia.org/wiki/Google_Pay/wiki/Hong_Kong'
p332
I253
sS'https://azure.microsoft.com/services/'
p333
I4
sS'https://en.wikipedia.org/wiki/Main_Page/wiki/Qian_Weijun'
p334
I140
sS'https://thenewboston.com/videos_food.php'
p335
I231
sS'https://en.wikipedia.org/wiki/Main_Page/wiki/Portal:Society'
p336
I173
sS'https://en.wikipedia.org/wiki/Google_Pay/wiki/Japan'
p337
I119
sS'https://en.wikipedia.org/wiki/Google_Pay/wiki/Android_(operating_system)'
p338
I50
sS'https://en.wikipedia.org/wiki/Main_Page/wiki/Electromagnetic_radiation'
p339
I366
sS'http://www.python.org/events/python-events/586/'
p340
I354
sS'https://en.wikipedia.org/wiki/Main_Page/wiki/John_Dunsworth'
p341
I251
sS'https://www.wikidata.org/wiki/'
p342
I322
sS'https://en.wikipedia.org/wiki/Main_Page/wiki/Wikipedia:Village_pump'
p343
I224
sS'https://en.wikipedia.org/wiki/Main_Page/wiki/Special:MyContributions'
p344
I81
sS'https://en.wikipedia.org/wiki/Google_Pay/wiki/Ukraine'
p345
I108
sS'http://www.python.org/downloads/mac-osx/'
p346
I112
sS'https://en.wikipedia.org/wiki/Main_Page/wiki/Prime_Minister_of_New_Zealand'
p347
I113
sS'https://www.behance.net/nihalpatel'
p348
I328
sS'https://devguide.python.org/'
p349
I89
sS'http://www.python.org/windows'
p350
I111
sS'https://en.wikipedia.org/wiki/Google_Pay/wiki/Android_Lollipop'
p351
I230
sS'https://en.wikipedia.org/wiki/Main_Page/wiki/Panic_of_1907'
p352
I5
sS'https://en.wikipedia.org/wiki/Main_Page/wiki/Birth_of_Bah%C3%A1%27u%27ll%C3%A1h'
p353
I331
sS'https://wiki.python.org/moin/PythonBooks'
p354
I158
sS'http://www.python.org/events/python-user-group/567/'
p355
I169
sS'http://www.python.org/success-stories/industrial-light-magic-runs-python/'
p356
I280
sS'http://www.python.org/about/gettingstarted/'
p357
I360
sS'https://en.wikipedia.org/wiki/Google_Pay/wiki/Software_release_life_cycle'
p358
I196
sS'https://pypi.python.org/'
p359
I32
sS'https://en.wikipedia.org/wiki/Main_Page/wiki/Knickerbocker_Trust_Company'
p360
I249
sS'https://en.wikipedia.org/wiki/Main_Page/wiki/David_B._Hill'
p361
I250
sS'https://en.wikipedia.org/wiki/Google_Pay/wiki/Singapore'
p362
I220
sS'https://en.wikipedia.org/wiki/Google_Pay/wiki/Chip_and_PIN'
p363
I171
sS'http://www.python.org/community/logos/'
p364
I281
sS'https://en.wikipedia.org/wiki/Main_Page/wiki/Wikipedia:Introduction'
p365
I126
sS'https://en.wikipedia.org/wiki/Google_Pay/wiki/Stripe_(company)'
p366
I321
sS'http://brochure.getpython.info/'
p367
I297
s.